target datalayout = "e-m:e-p270:32:32-p271:32:32-p272:64:64-i64:64-i128:128-f80:128-n8:16:32:64-S128"
target triple = "x86_64-pc-linux-gnu"

%union.pthread_mutex_t = type { %struct.__pthread_mutex_s }
%struct.__pthread_mutex_s = type { i32, i32, i32, i32, i32, i16, i16, %struct.__pthread_internal_list }
%struct.__pthread_internal_list = type { ptr, ptr }

@select_context_lock = internal global %union.pthread_mutex_t zeroinitializer, align 8
@.str.5 = private unnamed_addr constant [29 x i8] c"%s: pthread_mutex_lock(): %m\00", align 1
@select_context = internal global ptr null, align 8
@select_context_cnt = internal global i32 -1, align 4
@ops = internal global ptr null, align 8
@.str.10 = private unnamed_addr constant [31 x i8] c"%s: pthread_mutex_unlock(): %m\00", align 1
@__func__.select_g_fini = private unnamed_addr constant [14 x i8] c"select_g_fini\00", align 1

; Function Attrs: nounwind uwtable
define dso_local i32 @select_g_fini() #0 {
  %1 = alloca i32, align 4
  %2 = alloca i32, align 4
  %3 = alloca i32, align 4
  %4 = alloca i32, align 4
  %5 = alloca i32, align 4
  call void @llvm.lifetime.start.p0(i64 4, ptr %1) #7
  store i32 0, ptr %1, align 4
  call void @llvm.lifetime.start.p0(i64 4, ptr %2) #7
  call void @llvm.lifetime.start.p0(i64 4, ptr %3) #7
  br label %6

6:                                                ; preds = %0
  call void @llvm.lifetime.start.p0(i64 4, ptr %4) #7
  %7 = call i32 @pthread_mutex_lock(ptr noundef @select_context_lock) #7
  store i32 %7, ptr %4, align 4
  %8 = load i32, ptr %4, align 4
  %9 = icmp ne i32 %8, 0
  br i1 %9, label %10, label %13

10:                                               ; preds = %6
  %11 = load i32, ptr %4, align 4
  %12 = call ptr @__errno_location() #8
  store i32 %11, ptr %12, align 4
  call void (ptr, ...) @fatal_abort(ptr noundef @.str.5, ptr noundef @__func__.select_g_fini) #9
  unreachable

13:                                               ; preds = %6
  call void @llvm.lifetime.end.p0(i64 4, ptr %4) #7
  br label %14

14:                                               ; preds = %13
  br label %15

15:                                               ; preds = %14
  %16 = load ptr, ptr @select_context, align 8
  %17 = icmp ne ptr %16, null
  br i1 %17, label %19, label %18

18:                                               ; preds = %15
  br label %40

19:                                               ; preds = %15
  store i32 0, ptr %2, align 4
  br label %20

20:                                               ; preds = %36, %19
  %21 = load i32, ptr %2, align 4
  %22 = load i32, ptr @select_context_cnt, align 4
  %23 = icmp slt i32 %21, %22
  br i1 %23, label %24, label %39

24:                                               ; preds = %20
  %25 = load ptr, ptr @select_context, align 8
  %26 = load i32, ptr %2, align 4
  %27 = sext i32 %26 to i64
  %28 = getelementptr inbounds ptr, ptr %25, i64 %27
  %29 = load ptr, ptr %28, align 8
  %30 = call i32 @plugin_context_destroy(ptr noundef %29)
  store i32 %30, ptr %3, align 4
  %31 = load i32, ptr %3, align 4
  %32 = icmp ne i32 %31, 0
  br i1 %32, label %33, label %35

33:                                               ; preds = %24
  %34 = load i32, ptr %3, align 4
  store i32 %34, ptr %1, align 4
  br label %35

35:                                               ; preds = %33, %24
  br label %36

36:                                               ; preds = %35
  %37 = load i32, ptr %2, align 4
  %38 = add nsw i32 %37, 1
  store i32 %38, ptr %2, align 4
  br label %20, !llvm.loop !16

39:                                               ; preds = %20
  call void @slurm_xfree(ptr noundef @ops)
  call void @slurm_xfree(ptr noundef @select_context)
  store i32 -1, ptr @select_context_cnt, align 4
  br label %40

40:                                               ; preds = %39, %18
  br label %41

41:                                               ; preds = %40
  call void @llvm.lifetime.start.p0(i64 4, ptr %5) #7
  %42 = call i32 @pthread_mutex_unlock(ptr noundef @select_context_lock) #7
  store i32 %42, ptr %5, align 4
  %43 = load i32, ptr %5, align 4
  %44 = icmp ne i32 %43, 0
  br i1 %44, label %45, label %48

45:                                               ; preds = %41
  %46 = load i32, ptr %5, align 4
  %47 = call ptr @__errno_location() #8
  store i32 %46, ptr %47, align 4
  call void (ptr, ...) @fatal_abort(ptr noundef @.str.10, ptr noundef @__func__.select_g_fini) #9
  unreachable

48:                                               ; preds = %41
  call void @llvm.lifetime.end.p0(i64 4, ptr %5) #7
  br label %49

49:                                               ; preds = %48
  br label %50

50:                                               ; preds = %49
  %51 = load i32, ptr %1, align 4
  call void @llvm.lifetime.end.p0(i64 4, ptr %3) #7
  call void @llvm.lifetime.end.p0(i64 4, ptr %2) #7
  call void @llvm.lifetime.end.p0(i64 4, ptr %1) #7
  ret i32 %51
}