; Function Attrs: nounwind uwtable
define dso_local i32 @select_g_fini() local_unnamed_addr #0 {
  %1 = tail call i32 @pthread_mutex_lock(ptr noundef nonnull @select_context_lock) #15
  %.not = icmp eq i32 %1, 0
  br i1 %.not, label %4, label %2

2:                                                ; preds = %0
  %3 = tail call ptr @__errno_location() #16
  store i32 %1, ptr %3, align 4
  tail call void (ptr, ...) @fatal_abort(ptr noundef nonnull @.str.5, ptr noundef nonnull @__func__.select_g_fini) #17
  unreachable

4:                                                ; preds = %0
  %5 = load ptr, ptr @select_context, align 8
  %.not14 = icmp eq ptr %5, null
  br i1 %.not14, label %15, label %.preheader

.preheader:                                       ; preds = %4
  %6 = load i32, ptr @select_context_cnt, align 4
  %7 = icmp sgt i32 %6, 0
  br i1 %7, label %.lr.ph, label %._crit_edge

.lr.ph:                                           ; preds = %.preheader, %.lr.ph
  %indvars.iv = phi i64 [ %indvars.iv.next, %.lr.ph ], [ 0, %.preheader ]
  %.018 = phi i32 [ %spec.select, %.lr.ph ], [ 0, %.preheader ]
  %8 = load ptr, ptr @select_context, align 8
  %9 = getelementptr inbounds nuw ptr, ptr %8, i64 %indvars.iv
  %10 = load ptr, ptr %9, align 8
  %11 = tail call i32 @plugin_context_destroy(ptr noundef %10) #15
  %.not16 = icmp eq i32 %11, 0
  %spec.select = select i1 %.not16, i32 %.018, i32 %11
  %indvars.iv.next = add nuw nsw i64 %indvars.iv, 1
  %12 = load i32, ptr @select_context_cnt, align 4
  %13 = sext i32 %12 to i64
  %14 = icmp slt i64 %indvars.iv.next, %13
  br i1 %14, label %.lr.ph, label %._crit_edge, !llvm.loop !14

._crit_edge:                                      ; preds = %.lr.ph, %.preheader
  %.0.lcssa = phi i32 [ 0, %.preheader ], [ %spec.select, %.lr.ph ]
  tail call void @slurm_xfree(ptr noundef nonnull @ops) #15
  tail call void @slurm_xfree(ptr noundef nonnull @select_context) #15
  store i32 -1, ptr @select_context_cnt, align 4
  br label %15

15:                                               ; preds = %._crit_edge, %4
  %.2 = phi i32 [ %.0.lcssa, %._crit_edge ], [ 0, %4 ]
  %16 = tail call i32 @pthread_mutex_unlock(ptr noundef nonnull @select_context_lock) #15
  %.not15 = icmp eq i32 %16, 0
  br i1 %.not15, label %19, label %17

17:                                               ; preds = %15
  %18 = tail call ptr @__errno_location() #16
  store i32 %16, ptr %18, align 4
  tail call void (ptr, ...) @fatal_abort(ptr noundef nonnull @.str.10, ptr noundef nonnull @__func__.select_g_fini) #17
  unreachable

19:                                               ; preds = %15
  ret i32 %.2
}